; Function Attrs: mustprogress nounwind uwtable
define dso_local range(i32 0, 2) i32 @LLVMGetTargetFromTriple(ptr noundef %0, ptr nocapture noundef writeonly %1, ptr noundef writeonly %2) local_unnamed_addr #0 {
  %4 = alloca %"class.std::__cxx11::basic_string", align 8
  call void @_ZNSt7__cxx1112basic_stringIcSt11char_traitsIcESaIcEEC1Ev(ptr noundef nonnull align 8 dereferenceable(32) %4) #15
  %.not.i = icmp eq ptr %0, null
  br i1 %.not.i, label %_ZN4llvm9StringRefC2EPKc.exit, label %5

5:                                                ; preds = %3
  %6 = call noundef i64 @strlen(ptr noundef nonnull dereferenceable(1) %0) #15
  br label %_ZN4llvm9StringRefC2EPKc.exit

_ZN4llvm9StringRefC2EPKc.exit:                    ; preds = %3, %5
  %7 = phi i64 [ %6, %5 ], [ 0, %3 ]
  %8 = call noundef ptr @_ZN4llvm14TargetRegistry12lookupTargetENS_9StringRefERNSt7__cxx1112basic_stringIcSt11char_traitsIcESaIcEEE(ptr %0, i64 %7, ptr noundef nonnull align 8 dereferenceable(32) %4) #15
  store ptr %8, ptr %1, align 8
  %.not = icmp eq ptr %8, null
  br i1 %.not, label %9, label %13

9:                                                ; preds = %_ZN4llvm9StringRefC2EPKc.exit
  %.not6 = icmp eq ptr %2, null
  br i1 %.not6, label %13, label %10

10:                                               ; preds = %9
  %11 = call noundef ptr @_ZNKSt7__cxx1112basic_stringIcSt11char_traitsIcESaIcEE5c_strEv(ptr noundef nonnull align 8 dereferenceable(32) %4) #15
  %12 = call noalias ptr @strdup(ptr noundef %11) #15
  store ptr %12, ptr %2, align 8
  br label %13

13:                                               ; preds = %_ZN4llvm9StringRefC2EPKc.exit, %9, %10
  %.0 = phi i32 [ 1, %10 ], [ 1, %9 ], [ 0, %_ZN4llvm9StringRefC2EPKc.exit ]
  call void @_ZNSt7__cxx1112basic_stringIcSt11char_traitsIcESaIcEED1Ev(ptr noundef nonnull align 8 dereferenceable(32) %4) #15
  ret i32 %.0
}